target datalayout = "e-m:e-p270:32:32-p271:32:32-p272:64:64-i64:64-i128:128-f80:128-n8:16:32:64-S128"
target triple = "x86_64-pc-linux-gnu"

%struct.H5O_msg_class_t = type { i32, ptr, i64, i32, ptr, ptr, ptr, ptr, ptr, ptr, ptr, ptr, ptr, ptr, ptr, ptr, ptr, ptr, ptr, ptr }

@.str.1 = private unnamed_addr constant [103 x i8] c"generated/home/dtcxzyw/WorkSpace/Projects/compilers/llvm-opt-benchmark/bench/hdf5/hdf5/src/H5Oshared.h\00", align 1
@H5E_OHDR_g = external global i64, align 8
@__func__.H5O__sdspace_shared_copy_file = private unnamed_addr constant [30 x i8] c"H5O__sdspace_shared_copy_file\00", align 1
@H5E_CANTCOPY_g = external global i64, align 8
@.str.18 = private unnamed_addr constant [30 x i8] c"unable to copy native message\00", align 1
@H5E_WRITEERROR_g = external global i64, align 8
@.str.19 = private unnamed_addr constant [48 x i8] c"unable to determine if message should be shared\00", align 1

; Function Attrs: nounwind uwtable
define internal ptr @H5O__sdspace_shared_copy_file(ptr noundef %0, ptr noundef %1, ptr noundef %2, ptr noundef %3, ptr noundef %4, ptr noundef %5, ptr noundef %6) #0 {
  %8 = alloca ptr, align 8
  %9 = alloca ptr, align 8
  %10 = alloca ptr, align 8
  %11 = alloca ptr, align 8
  %12 = alloca ptr, align 8
  %13 = alloca ptr, align 8
  %14 = alloca ptr, align 8
  %15 = alloca ptr, align 8
  %16 = alloca ptr, align 8
  %17 = alloca i8, align 1
  store ptr %0, ptr %8, align 8
  store ptr %1, ptr %9, align 8
  store ptr %2, ptr %10, align 8
  store ptr %3, ptr %11, align 8
  store ptr %4, ptr %12, align 8
  store ptr %5, ptr %13, align 8
  store ptr %6, ptr %14, align 8
  store ptr null, ptr %15, align 8
  store ptr null, ptr %16, align 8
  store i8 0, ptr %17, align 1
  %18 = load ptr, ptr getelementptr inbounds (%struct.H5O_msg_class_t, ptr @H5O_MSG_SDSPACE, i32 0, i32 6), align 16
  %19 = load ptr, ptr %9, align 8
  %20 = call ptr %18(ptr noundef %19, ptr noundef null)
  store ptr %20, ptr %15, align 8
  %21 = icmp eq ptr null, %20
  br i1 %21, label %22, label %37

22:                                               ; preds = %7
  br label %23

23:                                               ; preds = %22
  br label %24

24:                                               ; preds = %23
  br label %25

25:                                               ; preds = %24
  %26 = load i64, ptr @H5E_OHDR_g, align 8
  %27 = load i64, ptr @H5E_CANTCOPY_g, align 8
  %28 = call i32 (ptr, ptr, i32, i64, i64, ptr, ...) @H5E_printf_stack(ptr noundef @.str.1, ptr noundef @__func__.H5O__sdspace_shared_copy_file, i32 noundef 307, i64 noundef %26, i64 noundef %27, ptr noundef @.str.18)
  br label %29

29:                                               ; preds = %25
  store i8 1, ptr %17, align 1
  %30 = load i8, ptr %17, align 1
  %31 = trunc i8 %30 to i1
  %32 = zext i1 %31 to i8
  store i8 %32, ptr %17, align 1
  br label %33

33:                                               ; preds = %29
  br label %34

34:                                               ; preds = %33
  store ptr null, ptr %16, align 8
  br label %66

35:                                               ; No predecessors!
  br label %36

36:                                               ; preds = %35
  br label %37

37:                                               ; preds = %36, %7
  %38 = load ptr, ptr %15, align 8
  call void @llvm.memset.p0.i64(ptr align 1 %38, i8 0, i64 40, i1 false)
  %39 = load ptr, ptr %8, align 8
  %40 = load ptr, ptr %10, align 8
  %41 = load ptr, ptr %9, align 8
  %42 = load ptr, ptr %15, align 8
  %43 = load ptr, ptr %11, align 8
  %44 = load ptr, ptr %12, align 8
  %45 = load ptr, ptr %13, align 8
  %46 = load ptr, ptr %14, align 8
  %47 = call i32 @H5O__shared_copy_file(ptr noundef %39, ptr noundef %40, ptr noundef @H5O_MSG_SDSPACE, ptr noundef %41, ptr noundef %42, ptr noundef %43, ptr noundef %44, ptr noundef %45, ptr noundef %46)
  %48 = icmp slt i32 %47, 0
  br i1 %48, label %49, label %64

49:                                               ; preds = %37
  br label %50

50:                                               ; preds = %49
  br label %51

51:                                               ; preds = %50
  br label %52

52:                                               ; preds = %51
  %53 = load i64, ptr @H5E_OHDR_g, align 8
  %54 = load i64, ptr @H5E_WRITEERROR_g, align 8
  %55 = call i32 (ptr, ptr, i32, i64, i64, ptr, ...) @H5E_printf_stack(ptr noundef @.str.1, ptr noundef @__func__.H5O__sdspace_shared_copy_file, i32 noundef 316, i64 noundef %53, i64 noundef %54, ptr noundef @.str.19)
  br label %56

56:                                               ; preds = %52
  store i8 1, ptr %17, align 1
  %57 = load i8, ptr %17, align 1
  %58 = trunc i8 %57 to i1
  %59 = zext i1 %58 to i8
  store i8 %59, ptr %17, align 1
  br label %60

60:                                               ; preds = %56
  br label %61

61:                                               ; preds = %60
  store ptr null, ptr %16, align 8
  br label %66

62:                                               ; No predecessors!
  br label %63

63:                                               ; preds = %62
  br label %64

64:                                               ; preds = %63, %37
  %65 = load ptr, ptr %15, align 8
  store ptr %65, ptr %16, align 8
  br label %66

66:                                               ; preds = %64, %61, %34
  %67 = load ptr, ptr %16, align 8
  %68 = icmp ne ptr %67, null
  br i1 %68, label %76, label %69

69:                                               ; preds = %66
  %70 = load ptr, ptr %15, align 8
  %71 = icmp ne ptr %70, null
  br i1 %71, label %72, label %75

72:                                               ; preds = %69
  %73 = load ptr, ptr %15, align 8
  %74 = call ptr @H5O_msg_free(i32 noundef 1, ptr noundef %73)
  br label %75

75:                                               ; preds = %72, %69
  br label %76

76:                                               ; preds = %75, %66
  %77 = load ptr, ptr %16, align 8
  ret ptr %77
}