; Function Attrs: nounwind uwtable
define internal ptr @H5O__sdspace_shared_copy_file(ptr noundef %0, ptr noundef %1, ptr noundef %2, ptr noundef %3, ptr noundef %4, ptr noundef %5, ptr noundef %6) #0 {
  %8 = tail call noalias ptr @H5FL_reg_calloc(ptr noundef nonnull @H5_H5S_extent_t_reg_free_list) #5
  %9 = icmp eq ptr %8, null
  br i1 %9, label %.thread22.i, label %13

.thread22.i:                                      ; preds = %7
  %10 = load i64, ptr @H5E_RESOURCE_g, align 8
  %11 = load i64, ptr @H5E_NOSPACE_g, align 8
  %12 = tail call i32 (ptr, ptr, i32, i64, i64, ptr, ...) @H5E_printf_stack(ptr noundef nonnull @.str.4, ptr noundef nonnull @__func__.H5O__sdspace_copy, i32 noundef 328, i64 noundef %10, i64 noundef %11, ptr noundef nonnull @.str.10) #5
  br label %21

13:                                               ; preds = %7
  %14 = tail call i32 @H5S__extent_copy_real(ptr noundef nonnull %8, ptr noundef %1, i1 noundef zeroext true) #5
  %15 = icmp slt i32 %14, 0
  br i1 %15, label %16, label %H5O__sdspace_copy.exit

16:                                               ; preds = %13
  %17 = load i64, ptr @H5E_DATASPACE_g, align 8
  %18 = load i64, ptr @H5E_CANTCOPY_g, align 8
  %19 = tail call i32 (ptr, ptr, i32, i64, i64, ptr, ...) @H5E_printf_stack(ptr noundef nonnull @.str.4, ptr noundef nonnull @__func__.H5O__sdspace_copy, i32 noundef 332, i64 noundef %17, i64 noundef %18, ptr noundef nonnull @.str.36) #5
  %20 = tail call ptr @H5FL_reg_free(ptr noundef nonnull @H5_H5S_extent_t_reg_free_list, ptr noundef nonnull %8) #5
  br label %21

21:                                               ; preds = %16, %.thread22.i
  %22 = load i64, ptr @H5E_OHDR_g, align 8
  %23 = load i64, ptr @H5E_CANTCOPY_g, align 8
  %24 = tail call i32 (ptr, ptr, i32, i64, i64, ptr, ...) @H5E_printf_stack(ptr noundef nonnull @.str.1, ptr noundef nonnull @__func__.H5O__sdspace_shared_copy_file, i32 noundef 307, i64 noundef %22, i64 noundef %23, ptr noundef nonnull @.str.18) #5
  br label %.thread

H5O__sdspace_copy.exit:                           ; preds = %13
  tail call void @llvm.memset.p0.i64(ptr noundef nonnull align 1 dereferenceable(40) %8, i8 0, i64 40, i1 false)
  %25 = tail call i32 @H5O__shared_copy_file(ptr noundef %0, ptr noundef %2, ptr noundef nonnull @H5O_MSG_SDSPACE, ptr noundef %1, ptr noundef nonnull %8, ptr noundef %3, ptr noundef %4, ptr noundef %5, ptr noundef %6) #5
  %26 = icmp slt i32 %25, 0
  br i1 %26, label %27, label %.thread

27:                                               ; preds = %H5O__sdspace_copy.exit
  %28 = load i64, ptr @H5E_OHDR_g, align 8
  %29 = load i64, ptr @H5E_WRITEERROR_g, align 8
  %30 = tail call i32 (ptr, ptr, i32, i64, i64, ptr, ...) @H5E_printf_stack(ptr noundef nonnull @.str.1, ptr noundef nonnull @__func__.H5O__sdspace_shared_copy_file, i32 noundef 316, i64 noundef %28, i64 noundef %29, ptr noundef nonnull @.str.19) #5
  %31 = tail call ptr @H5O_msg_free(i32 noundef 1, ptr noundef nonnull %8) #5
  br label %.thread

.thread:                                          ; preds = %21, %H5O__sdspace_copy.exit, %27
  %.024 = phi ptr [ null, %27 ], [ %8, %H5O__sdspace_copy.exit ], [ null, %21 ]
  ret ptr %.024
}